(lp0
(lp1
S'../Dataset-2/B0009/B0009_0001.png'
p2
aF212.0
aF356.0
aF164.0
aF366.0
aS'gun'
p3
aa(lp4
S'../Dataset-2/B0009/B0009_0002.png'
p5
aF204.0
aF357.0
aF157.0
aF348.0
ag3
aa(lp6
S'../Dataset-2/B0009/B0009_0003.png'
p7
aF243.0
aF397.0
aF165.0
aF358.0
ag3
aa(lp8
S'../Dataset-2/B0009/B0009_0004.png'
p9
aF279.0
aF433.0
aF172.0
aF359.0
ag3
aa(lp10
S'../Dataset-2/B0010/B0010_0001.png'
p11
aF126.0
aF316.0
aF131.0
aF314.0
ag3
aa(lp12
S'../Dataset-2/B0010/B0010_0002.png'
p13
aF131.0
aF326.0
aF131.0
aF312.0
ag3
aa(lp14
S'../Dataset-2/B0010/B0010_0003.png'
p15
aF137.0
aF328.0
aF128.0
aF318.0
ag3
aa(lp16
S'../Dataset-2/B0010/B0010_0004.png'
p17
aF89.0
aF274.0
aF94.0
aF279.0
ag3
aa(lp18
S'../Dataset-2/B0010/B0010_0005.png'
p19
aF84.0
aF265.0
aF111.0
aF304.0
ag3
aa(lp20
S'../Dataset-2/B0010/B0010_0006.png'
p21
aF96.0
aF282.0
aF92.0
aF295.0
ag3
aa(lp22
S'../Dataset-2/B0010/B0010_0007.png'
p23
aF47.0
aF225.0
aF100.0
aF304.0
ag3
aa(lp24
S'../Dataset-2/B0010/B0010_0008.png'
p25
aF43.0
aF218.0
aF62.0
aF262.0
ag3
aa(lp26
S'../Dataset-2/B0010/B0010_0009.png'
p27
aF2.0
aF174.0
aF93.0
aF299.0
ag3
aa(lp28
S'../Dataset-2/B0010/B0010_0010.png'
p29
aF3.0
aF172.0
aF63.0
aF267.0
ag3
aa(lp30
S'../Dataset-2/B0010/B0010_0011.png'
p31
aF3.0
aF169.0
aF77.0
aF286.0
ag3
aa(lp32
S'../Dataset-2/B0011/B0011_0001.png'
p33
aF53.0
aF277.0
aF57.0
aF217.0
ag3
aa(lp34
S'../Dataset-2/B0011/B0011_0002.png'
p35
aF57.0
aF285.0
aF41.0
aF195.0
ag3
aa(lp36
S'../Dataset-2/B0011/B0011_0003.png'
p37
aF63.0
aF302.0
aF31.0
aF195.0
ag3
aa(lp38
S'../Dataset-2/B0011/B0011_0004.png'
p39
aF72.0
aF311.0
aF23.0
aF183.0
ag3
aa(lp40
S'../Dataset-2/B0011/B0011_0005.png'
p41
aF37.0
aF272.0
aF22.0
aF185.0
ag3
aa(lp42
S'../Dataset-2/B0011/B0011_0006.png'
p43
aF50.0
aF292.0
aF3.0
aF180.0
ag3
aa(lp44
S'../Dataset-2/B0011/B0011_0007.png'
p45
aF4.0
aF255.0
aF3.0
aF162.0
ag3
aa(lp46
S'../Dataset-2/B0011/B0011_0008.png'
p47
aF3.0
aF218.0
aF3.0
aF177.0
ag3
aa(lp48
S'../Dataset-2/B0011/B0011_0009.png'
p49
aF4.0
aF190.0
aF2.0
aF174.0
ag3
aa(lp50
S'../Dataset-2/B0011/B0011_0010.png'
p51
aF2.0
aF140.0
aF20.0
aF149.0
ag3
aa(lp52
S'../Dataset-2/B0012/B0012_0001.png'
p53
aF238.0
aF384.0
aF3.0
aF210.0
ag3
aa(lp54
S'../Dataset-2/B0012/B0012_0002.png'
p55
aF226.0
aF365.0
aF11.0
aF210.0
ag3
aa(lp56
S'../Dataset-2/B0012/B0012_0003.png'
p57
aF214.0
aF349.0
aF19.0
aF222.0
ag3
aa(lp58
S'../Dataset-2/B0012/B0012_0004.png'
p59
aF192.0
aF318.0
aF3.0
aF202.0
ag3
aa(lp60
S'../Dataset-2/B0014/B0014_0001.png'
p61
aF312.0
aF486.0
aF76.0
aF289.0
ag3
aa(lp62
S'../Dataset-2/B0014/B0014_0002.png'
p63
aF290.0
aF470.0
aF74.0
aF285.0
ag3
aa(lp64
S'../Dataset-2/B0014/B0014_0003.png'
p65
aF318.0
aF505.0
aF55.0
aF272.0
ag3
aa(lp66
S'../Dataset-2/B0014/B0014_0004.png'
p67
aF292.0
aF466.0
aF66.0
aF298.0
ag3
aa(lp68
S'../Dataset-2/B0014/B0014_0005.png'
p69
aF253.0
aF427.0
aF73.0
aF315.0
ag3
aa(lp70
S'../Dataset-2/B0015/B0015_0001.png'
p71
aF133.0
aF365.0
aF109.0
aF316.0
ag3
aa(lp72
S'../Dataset-2/B0015/B0015_0002.png'
p73
aF102.0
aF342.0
aF101.0
aF308.0
ag3
aa(lp74
S'../Dataset-2/B0015/B0015_0003.png'
p75
aF78.0
aF322.0
aF95.0
aF302.0
ag3
aa(lp76
S'../Dataset-2/B0015/B0015_0004.png'
p77
aF96.0
aF332.0
aF96.0
aF304.0
ag3
aa(lp78
S'../Dataset-2/B0015/B0015_0005.png'
p79
aF99.0
aF334.0
aF82.0
aF289.0
ag3
aa(lp80
S'../Dataset-2/B0016/B0016_0001.png'
p81
aF180.0
aF271.0
aF19.0
aF177.0
ag3
aa(lp82
S'../Dataset-2/B0016/B0016_0002.png'
p83
aF203.0
aF276.0
aF14.0
aF204.0
ag3
aa(lp84
S'../Dataset-2/B0016/B0016_0003.png'
p85
aF193.0
aF280.0
aF40.0
aF247.0
ag3
aa(lp86
S'../Dataset-2/B0016/B0016_0004.png'
p87
aF191.0
aF289.0
aF60.0
aF273.0
ag3
aa(lp88
S'../Dataset-2/B0017/B0017_0001.png'
p89
aF332.0
aF486.0
aF56.0
aF247.0
ag3
aa(lp90
S'../Dataset-2/B0017/B0017_0002.png'
p91
aF292.0
aF445.0
aF116.0
aF306.0
ag3
aa(lp92
S'../Dataset-2/B0017/B0017_0003.png'
p93
aF321.0
aF493.0
aF160.0
aF354.0
ag3
aa(lp94
S'../Dataset-2/B0017/B0017_0004.png'
p95
aF318.0
aF470.0
aF138.0
aF337.0
ag3
aa(lp96
S'../Dataset-2/B0017/B0017_0005.png'
p97
aF248.0
aF395.0
aF67.0
aF286.0
ag3
aa(lp98
S'../Dataset-2/B0018/B0018_0001.png'
p99
aF218.0
aF499.0
aF2.0
aF199.0
ag3
aa(lp100
S'../Dataset-2/B0018/B0018_0002.png'
p101
aF165.0
aF482.0
aF18.0
aF213.0
ag3
aa(lp102
S'../Dataset-2/B0018/B0018_0003.png'
p103
aF123.0
aF446.0
aF37.0
aF214.0
ag3
aa(lp104
S'../Dataset-2/B0018/B0018_0004.png'
p105
aF100.0
aF413.0
aF40.0
aF219.0
ag3
aa(lp106
S'../Dataset-2/B0020/B0020_0001.png'
p107
aF136.0
aF360.0
aF108.0
aF315.0
ag3
aa(lp108
S'../Dataset-2/B0020/B0020_0002.png'
p109
aF106.0
aF344.0
aF110.0
aF304.0
ag3
aa(lp110
S'../Dataset-2/B0020/B0020_0003.png'
p111
aF84.0
aF321.0
aF98.0
aF298.0
ag3
aa(lp112
S'../Dataset-2/B0020/B0020_0004.png'
p113
aF98.0
aF331.0
aF99.0
aF304.0
ag3
aa(lp114
S'../Dataset-2/B0021/B0021_0001.png'
p115
aF106.0
aF444.0
aF51.0
aF273.0
ag3
aa(lp116
S'../Dataset-2/B0021/B0021_0002.png'
p117
aF107.0
aF459.0
aF80.0
aF280.0
ag3
aa(lp118
S'../Dataset-2/B0021/B0021_0003.png'
p119
aF142.0
aF447.0
aF116.0
aF309.0
ag3
aa(lp120
S'../Dataset-2/B0021/B0021_0004.png'
p121
aF131.0
aF435.0
aF104.0
aF346.0
ag3
aa(lp122
S'../Dataset-2/B0022/B0022_0001.png'
p123
aF217.0
aF520.0
aF74.0
aF258.0
ag3
aa(lp124
S'../Dataset-2/B0022/B0022_0002.png'
p125
aF242.0
aF507.0
aF74.0
aF265.0
ag3
aa(lp126
S'../Dataset-2/B0022/B0022_0003.png'
p127
aF251.0
aF488.0
aF88.0
aF287.0
ag3
aa(lp128
S'../Dataset-2/B0022/B0022_0004.png'
p129
aF207.0
aF410.0
aF108.0
aF297.0
ag3
aa(lp130
S'../Dataset-2/B0022/B0022_0005.png'
p131
aF310.0
aF441.0
aF106.0
aF312.0
ag3
aa(lp132
S'../Dataset-2/B0022/B0022_0006.png'
p133
aF359.0
aF420.0
aF101.0
aF319.0
ag3
aa(lp134
S'../Dataset-2/B0023/B0023_0001.png'
p135
aF128.0
aF394.0
aF60.0
aF343.0
ag3
aa(lp136
S'../Dataset-2/B0023/B0023_0002.png'
p137
aF146.0
aF457.0
aF98.0
aF297.0
ag3
aa(lp138
S'../Dataset-2/B0023/B0023_0003.png'
p139
aF131.0
aF477.0
aF117.0
aF318.0
ag3
aa(lp140
S'../Dataset-2/B0023/B0023_0004.png'
p141
aF113.0
aF472.0
aF159.0
aF353.0
ag3
aa(lp142
S'../Dataset-2/B0023/B0023_0005.png'
p143
aF122.0
aF451.0
aF123.0
aF353.0
ag3
aa(lp144
S'../Dataset-2/B0023/B0023_0006.png'
p145
aF134.0
aF424.0
aF112.0
aF355.0
ag3
aa(lp146
S'../Dataset-2/B0024/B0024_0001.png'
p147
aF221.0
aF507.0
aF80.0
aF323.0
ag3
aa(lp148
S'../Dataset-2/B0024/B0024_0002.png'
p149
aF256.0
aF529.0
aF72.0
aF325.0
ag3
aa(lp150
S'../Dataset-2/B0024/B0024_0003.png'
p151
aF195.0
aF462.0
aF72.0
aF336.0
ag3
aa(lp152
S'../Dataset-2/B0024/B0024_0004.png'
p153
aF251.0
aF488.0
aF63.0
aF328.0
ag3
aa(lp154
S'../Dataset-2/B0024/B0024_0005.png'
p155
aF241.0
aF457.0
aF67.0
aF338.0
ag3
aa(lp156
S'../Dataset-2/B0025/B0025_0001.png'
p157
aF134.0
aF456.0
aF25.0
aF251.0
ag3
aa(lp158
S'../Dataset-2/B0025/B0025_0002.png'
p159
aF119.0
aF468.0
aF82.0
aF259.0
ag3
aa(lp160
S'../Dataset-2/B0025/B0025_0003.png'
p161
aF149.0
aF457.0
aF111.0
aF298.0
ag3
aa(lp162
S'../Dataset-2/B0025/B0025_0004.png'
p163
aF153.0
aF423.0
aF90.0
aF350.0
ag3
aa(lp164
S'../Dataset-2/B0026/B0026_0001.png'
p165
aF165.0
aF479.0
aF84.0
aF313.0
ag3
aa(lp166
S'../Dataset-2/B0026/B0026_0002.png'
p167
aF136.0
aF439.0
aF82.0
aF318.0
ag3
aa(lp168
S'../Dataset-2/B0026/B0026_0003.png'
p169
aF171.0
aF453.0
aF74.0
aF308.0
ag3
aa(lp170
S'../Dataset-2/B0026/B0026_0004.png'
p171
aF191.0
aF432.0
aF73.0
aF312.0
ag3
aa(lp172
S'../Dataset-2/B0026/B0026_0005.png'
p173
aF223.0
aF414.0
aF73.0
aF310.0
ag3
aa(lp174
S'../Dataset-2/B0027/B0027_0001.png'
p175
aF183.0
aF501.0
aF71.0
aF299.0
ag3
aa(lp176
S'../Dataset-2/B0027/B0027_0002.png'
p177
aF165.0
aF476.0
aF70.0
aF295.0
ag3
aa(lp178
S'../Dataset-2/B0027/B0027_0003.png'
p179
aF169.0
aF450.0
aF62.0
aF303.0
ag3
aa(lp180
S'../Dataset-2/B0027/B0027_0004.png'
p181
aF230.0
aF480.0
aF58.0
aF300.0
ag3
aa(lp182
S'../Dataset-2/B0027/B0027_0005.png'
p183
aF224.0
aF435.0
aF51.0
aF297.0
ag3
aa(lp184
S'../Dataset-2/B0028/B0028_0001.png'
p185
aF84.0
aF367.0
aF4.0
aF237.0
ag3
aa(lp186
S'../Dataset-2/B0028/B0028_0002.png'
p187
aF57.0
aF318.0
aF3.0
aF280.0
ag3
aa(lp188
S'../Dataset-2/B0028/B0028_0003.png'
p189
aF39.0
aF262.0
aF6.0
aF315.0
ag3
aa(lp190
S'../Dataset-2/B0028/B0028_0004.png'
p191
aF43.0
aF264.0
aF32.0
aF338.0
ag3
aa(lp192
S'../Dataset-2/B0028/B0028_0005.png'
p193
aF81.0
aF301.0
aF91.0
aF375.0
ag3
aa(lp194
S'../Dataset-2/B0029/B0029_0001.png'
p195
aF154.0
aF464.0
aF3.0
aF188.0
ag3
aa(lp196
S'../Dataset-2/B0029/B0029_0002.png'
p197
aF146.0
aF450.0
aF1.0
aF211.0
ag3
aa(lp198
S'../Dataset-2/B0029/B0029_0003.png'
p199
aF175.0
aF466.0
aF3.0
aF207.0
ag3
aa(lp200
S'../Dataset-2/B0029/B0029_0004.png'
p201
aF181.0
aF449.0
aF3.0
aF203.0
ag3
aa(lp202
S'../Dataset-2/B0029/B0029_0005.png'
p203
aF226.0
aF469.0
aF3.0
aF211.0
ag3
aa(lp204
S'../Dataset-2/B0029/B0029_0006.png'
p205
aF225.0
aF413.0
aF4.0
aF214.0
ag3
aa(lp206
S'../Dataset-2/B0029/B0029_0007.png'
p207
aF293.0
aF430.0
aF5.0
aF211.0
ag3
aa(lp208
S'../Dataset-2/B0030/B0030_0001.png'
p209
aF181.0
aF567.0
aF79.0
aF296.0
ag3
aa(lp210
S'../Dataset-2/B0030/B0030_0002.png'
p211
aF260.0
aF611.0
aF72.0
aF299.0
ag3
aa(lp212
S'../Dataset-2/B0030/B0030_0003.png'
p213
aF266.0
aF610.0
aF76.0
aF304.0
ag3
aa(lp214
S'../Dataset-2/B0030/B0030_0004.png'
p215
aF327.0
aF609.0
aF74.0
aF309.0
ag3
aa(lp216
S'../Dataset-2/B0030/B0030_0005.png'
p217
aF330.0
aF610.0
aF67.0
aF306.0
ag3
aa(lp218
S'../Dataset-2/B0030/B0030_0006.png'
p219
aF340.0
aF611.0
aF70.0
aF314.0
ag3
aa(lp220
S'../Dataset-2/B0030/B0030_0007.png'
p221
aF382.0
aF572.0
aF93.0
aF333.0
ag3
aa(lp222
S'../Dataset-2/B0032/B0032_0001.png'
p223
aF151.0
aF497.0
aF56.0
aF261.0
ag3
aa(lp224
S'../Dataset-2/B0032/B0032_0002.png'
p225
aF128.0
aF475.0
aF63.0
aF232.0
ag3
aa(lp226
S'../Dataset-2/B0032/B0032_0003.png'
p227
aF134.0
aF484.0
aF83.0
aF275.0
ag3
aa(lp228
S'../Dataset-2/B0032/B0032_0004.png'
p229
aF144.0
aF459.0
aF108.0
aF292.0
ag3
aa(lp230
S'../Dataset-2/B0033/B0033_0001.png'
p231
aF205.0
aF461.0
aF85.0
aF346.0
ag3
aa(lp232
S'../Dataset-2/B0033/B0033_0002.png'
p233
aF257.0
aF497.0
aF89.0
aF357.0
ag3
aa(lp234
S'../Dataset-2/B0033/B0033_0003.png'
p235
aF227.0
aF457.0
aF73.0
aF345.0
ag3
aa(lp236
S'../Dataset-2/B0033/B0033_0004.png'
p237
aF267.0
aF478.0
aF71.0
aF345.0
ag3
aa(lp238
S'../Dataset-2/B0033/B0033_0005.png'
p239
aF255.0
aF409.0
aF22.0
aF322.0
ag3
aa(lp240
S'../Dataset-2/B0034/B0034_0001.png'
p241
aF121.0
aF446.0
aF12.0
aF227.0
ag3
aa(lp242
S'../Dataset-2/B0034/B0034_0002.png'
p243
aF126.0
aF443.0
aF37.0
aF255.0
ag3
aa(lp244
S'../Dataset-2/B0034/B0034_0003.png'
p245
aF107.0
aF412.0
aF28.0
aF292.0
ag3
aa(lp246
S'../Dataset-2/B0034/B0034_0004.png'
p247
aF89.0
aF370.0
aF25.0
aF328.0
ag3
aa(lp248
S'../Dataset-2/B0034/B0034_0005.png'
p249
aF92.0
aF322.0
aF32.0
aF361.0
ag3
aa(lp250
S'../Dataset-2/B0034/B0034_0006.png'
p251
aF89.0
aF316.0
aF37.0
aF373.0
ag3
aa(lp252
S'../Dataset-2/B0035/B0035_0001.png'
p253
aF218.0
aF501.0
aF12.0
aF236.0
ag3
aa(lp254
S'../Dataset-2/B0035/B0035_0002.png'
p255
aF177.0
aF509.0
aF32.0
aF254.0
ag3
aa(lp256
S'../Dataset-2/B0035/B0035_0003.png'
p257
aF153.0
aF483.0
aF39.0
aF263.0
ag3
aa(lp258
S'../Dataset-2/B0035/B0035_0004.png'
p259
aF108.0
aF435.0
aF56.0
aF273.0
ag3
aa(lp260
S'../Dataset-2/B0036/B0036_0001.png'
p261
aF196.0
aF360.0
aF168.0
aF372.0
ag3
aa(lp262
S'../Dataset-2/B0036/B0036_0002.png'
p263
aF205.0
aF359.0
aF158.0
aF349.0
ag3
aa(lp264
S'../Dataset-2/B0036/B0036_0003.png'
p265
aF240.0
aF397.0
aF168.0
aF363.0
ag3
aa(lp266
S'../Dataset-2/B0036/B0036_0004.png'
p267
aF270.0
aF432.0
aF170.0
aF365.0
ag3
aa(lp268
S'../Dataset-2/B0036/B0036_0005.png'
p269
aF241.0
aF340.0
aF60.0
aF213.0
ag3
aa(lp270
S'../Dataset-2/B0036/B0036_0006.png'
p271
aF206.0
aF332.0
aF21.0
aF167.0
ag3
aa(lp272
S'../Dataset-2/B0036/B0036_0007.png'
p273
aF166.0
aF273.0
aF21.0
aF179.0
ag3
aa(lp274
S'../Dataset-2/B0036/B0036_0008.png'
p275
aF195.0
aF277.0
aF14.0
aF206.0
ag3
aa(lp276
S'../Dataset-2/B0036/B0036_0009.png'
p277
aF194.0
aF285.0
aF37.0
aF247.0
ag3
aa(lp278
S'../Dataset-2/B0036/B0036_0010.png'
p279
aF185.0
aF294.0
aF61.0
aF284.0
ag3
aa(lp280
S'../Dataset-2/B0036/B0036_0011.png'
p281
aF261.0
aF395.0
aF130.0
aF322.0
ag3
aa(lp282
S'../Dataset-2/B0037/B0037_0001.png'
p283
aF132.0
aF312.0
aF134.0
aF314.0
ag3
aa(lp284
S'../Dataset-2/B0037/B0037_0002.png'
p285
aF133.0
aF322.0
aF130.0
aF318.0
ag3
aa(lp286
S'../Dataset-2/B0037/B0037_0003.png'
p287
aF134.0
aF328.0
aF130.0
aF318.0
ag3
aa(lp288
S'../Dataset-2/B0037/B0037_0004.png'
p289
aF90.0
aF280.0
aF92.0
aF287.0
ag3
aa(lp290
S'../Dataset-2/B0037/B0037_0005.png'
p291
aF84.0
aF260.0
aF115.0
aF302.0
ag3
aa(lp292
S'../Dataset-2/B0037/B0037_0006.png'
p293
aF93.0
aF280.0
aF96.0
aF287.0
ag3
aa(lp294
S'../Dataset-2/B0037/B0037_0007.png'
p295
aF45.0
aF225.0
aF100.0
aF301.0
ag3
aa(lp296
S'../Dataset-2/B0037/B0037_0008.png'
p297
aF38.0
aF223.0
aF62.0
aF262.0
ag3
aa(lp298
S'../Dataset-2/B0037/B0037_0009.png'
p299
aF4.0
aF173.0
aF93.0
aF294.0
ag3
aa(lp300
S'../Dataset-2/B0037/B0037_0010.png'
p301
aF2.0
aF172.0
aF67.0
aF269.0
ag3
aa(lp302
S'../Dataset-2/B0037/B0037_0011.png'
p303
aF3.0
aF166.0
aF78.0
aF286.0
ag3
aa(lp304
S'../Dataset-2/B0038/B0038_0001.png'
p305
aF91.0
aF303.0
aF133.0
aF274.0
ag3
aa(lp306
S'../Dataset-2/B0038/B0038_0002.png'
p307
aF49.0
aF282.0
aF61.0
aF215.0
ag3
aa(lp308
S'../Dataset-2/B0038/B0038_0003.png'
p309
aF61.0
aF287.0
aF36.0
aF197.0
ag3
aa(lp310
S'../Dataset-2/B0038/B0038_0004.png'
p311
aF65.0
aF301.0
aF30.0
aF193.0
ag3
aa(lp312
S'../Dataset-2/B0038/B0038_0005.png'
p313
aF79.0
aF307.0
aF21.0
aF183.0
ag3
aa(lp314
S'../Dataset-2/B0038/B0038_0006.png'
p315
aF40.0
aF271.0
aF19.0
aF189.0
ag3
aa(lp316
S'../Dataset-2/B0038/B0038_0007.png'
p317
aF55.0
aF290.0
aF4.0
aF181.0
ag3
aa(lp318
S'../Dataset-2/B0038/B0038_0009.png'
p319
aF3.0
aF215.0
aF3.0
aF183.0
ag3
aa(lp320
S'../Dataset-2/B0038/B0038_0010.png'
p321
aF3.0
aF190.0
aF2.0
aF172.0
ag3
aa(lp322
S'../Dataset-2/B0038/B0038_0011.png'
p323
aF1.0
aF139.0
aF22.0
aF150.0
ag3
aa(lp324
S'../Dataset-2/B0039/B0039_0001.png'
p325
aF332.0
aF488.0
aF54.0
aF249.0
ag3
aa(lp326
S'../Dataset-2/B0039/B0039_0002.png'
p327
aF300.0
aF450.0
aF114.0
aF307.0
ag3
aa(lp328
S'../Dataset-2/B0039/B0039_0003.png'
p329
aF329.0
aF495.0
aF163.0
aF347.0
ag3
aa(lp330
S'../Dataset-2/B0039/B0039_0004.png'
p331
aF315.0
aF472.0
aF138.0
aF333.0
ag3
aa(lp332
S'../Dataset-2/B0039/B0039_0005.png'
p333
aF250.0
aF395.0
aF71.0
aF267.0
ag3
aa(lp334
S'../Dataset-2/B0039/B0039_0006.png'
p335
aF237.0
aF384.0
aF5.0
aF217.0
ag3
aa(lp336
S'../Dataset-2/B0039/B0039_0007.png'
p337
aF228.0
aF366.0
aF10.0
aF219.0
ag3
aa(lp338
S'../Dataset-2/B0039/B0039_0008.png'
p339
aF217.0
aF346.0
aF20.0
aF221.0
ag3
aa(lp340
S'../Dataset-2/B0039/B0039_0009.png'
p341
aF195.0
aF318.0
aF1.0
aF192.0
ag3
aa(lp342
S'../Dataset-2/B0040/B0040_0001.png'
p343
aF90.0
aF276.0
aF281.0
aF355.0
ag3
aa(lp344
S'../Dataset-2/B0040/B0040_0002.png'
p345
aF41.0
aF229.0
aF151.0
aF257.0
ag3
aa(lp346
S'../Dataset-2/B0040/B0040_0003.png'
p347
aF17.0
aF238.0
aF104.0
aF232.0
ag3
aa(lp348
S'../Dataset-2/B0040/B0040_0004.png'
p349
aF17.0
aF249.0
aF110.0
aF245.0
ag3
aa(lp350
S'../Dataset-2/B0040/B0040_0005.png'
p351
aF34.0
aF260.0
aF172.0
aF306.0
ag3
aa(lp352
S'../Dataset-2/B0040/B0040_0006.png'
p353
aF5.0
aF205.0
aF145.0
aF259.0
ag3
aa(lp354
S'../Dataset-2/B0040/B0040_0007.png'
p355
aF3.0
aF177.0
aF169.0
aF264.0
ag3
aa(lp356
S'../Dataset-2/B0040/B0040_0008.png'
p357
aF36.0
aF255.0
aF151.0
aF283.0
ag3
aa(lp358
S'../Dataset-2/B0040/B0040_0009.png'
p359
aF5.0
aF198.0
aF203.0
aF344.0
ag3
aa(lp360
S'../Dataset-2/B0040/B0040_0010.png'
p361
aF6.0
aF203.0
aF147.0
aF309.0
ag3
aa(lp362
S'../Dataset-2/B0040/B0040_0011.png'
p363
aF125.0
aF369.0
aF26.0
aF186.0
ag3
aa(lp364
S'../Dataset-2/B0040/B0040_0012.png'
p365
aF48.0
aF249.0
aF44.0
aF238.0
ag3
aa(lp366
S'../Dataset-2/B0041/B0041_0001.png'
p367
aF375.0
aF585.0
aF205.0
aF407.0
ag3
aa(lp368
S'../Dataset-2/B0041/B0041_0002.png'
p369
aF347.0
aF571.0
aF216.0
aF414.0
ag3
aa(lp370
S'../Dataset-2/B0041/B0041_0003.png'
p371
aF324.0
aF556.0
aF211.0
aF407.0
ag3
aa(lp372
S'../Dataset-2/B0041/B0041_0004.png'
p373
aF307.0
aF543.0
aF201.0
aF408.0
ag3
aa(lp374
S'../Dataset-2/B0041/B0041_0005.png'
p375
aF295.0
aF562.0
aF208.0
aF415.0
ag3
aa(lp376
S'../Dataset-2/B0041/B0041_0006.png'
p377
aF284.0
aF527.0
aF220.0
aF413.0
ag3
aa(lp378
S'../Dataset-2/B0041/B0041_0007.png'
p379
aF283.0
aF552.0
aF191.0
aF401.0
ag3
aa(lp380
S'../Dataset-2/B0041/B0041_0008.png'
p381
aF256.0
aF538.0
aF192.0
aF409.0
ag3
aa(lp382
S'../Dataset-2/B0041/B0041_0009.png'
p383
aF275.0
aF564.0
aF192.0
aF362.0
ag3
aa(lp384
S'../Dataset-2/B0041/B0041_0010.png'
p385
aF194.0
aF436.0
aF185.0
aF390.0
ag3
aa.